c__builtin__
set
p0
((lp1
(ilibs.game.physics_interface.game_objects.level_build.platforms
LavaLine
p2
(dp3
S'body'
p4
NsS'smap'
p5
(dp6
sS'space'
p7
NsS'color'
p8
(I1
I0
I0
I1
tp9
sS'relative_points'
p10
(F0.3984375
F0.6352272727272728
F0.396875
F0.6613636363636364
tp11
sS'shapes'
p12
(lp13
sS'points'
p14
(F1023.0
F559.0
F1022.0
F582.0
tp15
sS'context'
p16
NsS'physics_interface'
p17
I0
sS'render_obj'
p18
(tsS'before'
p19
I00
sba(ilibs.game.physics_interface.game_objects.level_build.platforms
LavaLine
p20
(dp21
g4
Nsg5
(dp22
sg7
Nsg8
g9
sg10
(F0.5578125
F0.6659090909090909
F0.9984375
F0.5227272727272727
tp23
sg12
(lp24
sg14
(F1125.0
F586.0
F1407.0
F460.0
tp25
sg16
Nsg17
I0
sg18
(tsg19
I00
sba(ilibs.game.physics_interface.game_objects.level_build.platforms
LavaLine
p26
(dp27
g4
Nsg5
(dp28
sg7
Nsg8
g9
sg10
(F0.440625
F0.1375
F0.5578125
F0.6659090909090909
tp29
sg12
(lp30
sg14
(F1050.0
F121.00000000000001
F1125.0
F586.0
tp31
sg16
Nsg17
I0
sg18
(tsg19
I00
sba(ilibs.game.physics_interface.game_objects.level_build.platforms
LavaLine
p32
(dp33
g4
Nsg5
(dp34
sg7
Nsg8
g9
sg10
(F0.45625
F0.5897727272727272
F0.5046875
F0.5818181818181818
tp35
sg12
(lp36
sg14
(F1060.0
F519.0
F1091.0
F512.0
tp37
sg16
Nsg17
I0
sg18
(tsg19
I00
sba(ilibs.game.physics_interface.game_objects.level_build.platforms
LavaLine
p38
(dp39
g4
Nsg5
(dp40
sg7
Nsg8
g9
sg10
(F0.43125
F0.6329545454545454
F0.440625
F0.6625
tp41
sg12
(lp42
sg14
(F1044.0
F557.0
F1050.0
F583.0
tp43
sg16
Nsg17
I0
sg18
(tsg19
I00
sba(ilibs.game.physics_interface.game_objects.level_build.platforms
LavaLine
p44
(dp45
g4
Nsg5
(dp46
sg7
Nsg8
g9
sg10
(F0.31875
F0.6920454545454545
F0.00625
F0.9772727272727273
tp47
sg12
(lp48
sg14
(F972.0
F609.0
F772.0
F860.0
tp49
sg16
Nsg17
I0
sg18
(tsg19
I00
sba(ilibs.game.physics_interface.game_objects.level_build.bucket
Bucket
p50
(dp51
g4
Nsg5
(dp52
sS'angle'
p53
I90
sg7
Nsg8
(I0
I0
I1
I1
tp54
sS'line3'
p55
(lp56
F934.0
aF292.49999999999994
aF934.0
aF267.49999999999994
asS'pos'
p57
(F974.0
F279.99999999999994
tp58
sS'line1'
p59
(lp60
F974.0
aF279.99999999999994
aF894.0
aF304.99999999999994
asS'relative_pos'
p61
(F0.321875
F0.3181818181818181
tp62
sg12
(lp63
sg16
NsS'line2'
p64
(lp65
F974.0
aF279.99999999999994
aF894.0
aF254.99999999999994
asg17
I0
sg18
(tsg19
I00
sba(ilibs.game.physics_interface.game_objects.level_build.platforms
LavaLine
p66
(dp67
g4
Nsg5
(dp68
sg7
Nsg8
g9
sg10
(F0.3703125
F0.5704545454545454
F0.4640625
F0.6363636363636362
tp69
sg12
(lp70
sg14
(F1005.0
F502.0
F1065.0
F559.9999999999999
tp71
sg16
Nsg17
I0
sg18
(tsg19
I00
sba(ilibs.game.physics_interface.game_objects.level_build.platforms
LavaLine
p72
(dp73
g4
Nsg5
(dp74
sg7
Nsg8
g9
sg10
(F0.409375
F0.4636363636363636
F0.30625
F0.19772727272727275
tp75
sg12
(lp76
sg14
(F1030.0
F408.0
F964.0
F174.00000000000003
tp77
sg16
Nsg17
I0
sg18
(tsg19
I00
sba(ilibs.game.physics_interface.game_objects.level_build.platforms
LavaLine
p78
(dp79
g4
Nsg5
(dp80
sg7
Nsg8
g9
sg10
(F0.3671875
F0.6386363636363637
F0.459375
F0.5693181818181818
tp81
sg12
(lp82
sg14
(F1003.0
F562.0
F1062.0
F501.0
tp83
sg16
Nsg17
I0
sg18
(tsg19
I00
sba(ilibs.game.physics_interface.game_objects.level_build.platforms
LavaLine
p84
(dp85
g4
Nsg5
(dp86
sg7
Nsg8
g9
sg10
(F0.378125
F0.615909090909091
F0.3328125
F0.6318181818181818
tp87
sg12
(lp88
sg14
(F1010.0
F542.0
F981.0
F556.0
tp89
sg16
Nsg17
I0
sg18
(tsg19
I00
sba(ilibs.game.physics_interface.game_objects.level_build.platforms
LavaLine
p90
(dp91
g4
Nsg5
(dp92
sg7
Nsg8
g9
sg10
(F0.0046875
F0.9784090909090909
F0.5921875
F0.9454545454545454
tp93
sg12
(lp94
sg14
(F771.0
F861.0
F1147.0
F832.0
tp95
sg16
Nsg17
I0
sg18
(tsg19
I00
sba(ilibs.game.physics_interface.game_objects.level_build.platforms
LavaLine
p96
(dp97
g4
Nsg5
(dp98
sg7
Nsg8
g9
sg10
(F0.5921875
F0.9454545454545454
F0.31875
F0.6920454545454545
tp99
sg12
(lp100
sg14
(F1147.0
F832.0
F972.0
F609.0
tp101
sg16
Nsg17
I0
sg18
(tsg19
I00
sba(ilibs.game.physics_interface.game_objects.level_build.platforms
LavaLine
p102
(dp103
g4
Nsg5
(dp104
sg7
Nsg8
g9
sg10
(F0.009375
F0.31136363636363634
F0.409375
F0.4636363636363637
tp105
sg12
(lp106
sg14
(F774.0
F274.0
F1030.0
F408.00000000000006
tp107
sg16
Nsg17
I0
sg18
(tsg19
I00
sba(ilibs.game.physics_interface.game_objects.level_build.platforms
LavaLine
p108
(dp109
g4
Nsg5
(dp110
sg7
Nsg8
g9
sg10
(F0.428125
F0.575
F0.4390625
F0.5511363636363635
tp111
sg12
(lp112
sg14
(F1042.0
F505.99999999999994
F1049.0
F484.9999999999999
tp113
sg16
Nsg17
I0
sg18
(tsg19
I00
sba(ilibs.game.physics_interface.game_objects.level_build.platforms
LavaLine
p114
(dp115
g4
Nsg5
(dp116
sg7
Nsg8
g9
sg10
(F0.415625
F0.6465909090909091
F0.415625
F0.5613636363636364
tp117
sg12
(lp118
sg14
(F1034.0
F569.0
F1034.0
F494.00000000000006
tp119
sg16
Nsg17
I0
sg18
(tsg19
I00
sba(ilibs.game.physics_interface.game_objects.level_build.platforms
LavaLine
p120
(dp121
g4
Nsg5
(dp122
sg7
Nsg8
g9
sg10
(F0.3515625
F0.6034090909090909
F0.4734375
F0.6034090909090909
tp123
sg12
(lp124
sg14
(F993.0
F531.0
F1071.0
F531.0
tp125
sg16
Nsg17
I0
sg18
(tsg19
I00
sba(ilibs.game.physics_interface.game_objects.level_build.platforms
LavaLine
p126
(dp127
g4
Nsg5
(dp128
sg7
Nsg8
g9
sg10
(F0.4578125
F0.6136363636363636
F0.5
F0.6295454545454545
tp129
sg12
(lp130
sg14
(F1061.0
F540.0
F1088.0
F554.0
tp131
sg16
Nsg17
I0
sg18
(tsg19
I00
sba(ilibs.game.physics_interface.game_objects.level_build.platforms
LavaLine
p132
(dp133
g4
Nsg5
(dp134
sg7
Nsg8
g9
sg10
(F0.3765625
F0.5943181818181819
F0.340625
F0.5840909090909091
tp135
sg12
(lp136
sg14
(F1009.0
F523.0
F986.0
F514.0
tp137
sg16
Nsg17
I0
sg18
(tsg19
I00
sba(ilibs.game.physics_interface.game_objects.level_build.platforms
LavaLine
p138
(dp139
g4
Nsg5
(dp140
sg7
Nsg8
g9
sg10
(F0.4
F0.5818181818181818
F0.3796875
F0.5511363636363635
tp141
sg12
(lp142
sg14
(F1024.0
F512.0
F1011.0
F484.9999999999999
tp143
sg16
Nsg17
I0
sg18
(tsg19
I00
sba(ilibs.game.physics_interface.game_objects.level_build.platforms
LavaLine
p144
(dp145
g4
Nsg5
(dp146
sg7
Nsg8
g9
sg10
(F0.99375
F0.5227272727272727
F0.440625
F0.13863636363636364
tp147
sg12
(lp148
sg14
(F1404.0
F460.0
F1050.0
F122.0
tp149
sg16
Nsg17
I0
sg18
(tsg19
I00
sbatp150
Rp151
.