c__builtin__
set
p0
((lp1
(ilibs.game.physics_interface.game_objects.level_build.platforms
FriendlyLine
p2
(dp3
S'body'
p4
NsS'smap'
p5
(dp6
sS'space'
p7
NsS'color'
p8
(I0
I1
I0
I1
tp9
sS'relative_points'
p10
(F0.49375
F0.6181818181818182
F0.503125
F0.6215909090909091
tp11
sS'shapes'
p12
(lp13
sS'points'
p14
(F1084.0
F544.0
F1090.0
F547.0
tp15
sS'context'
p16
NsS'physics_interface'
p17
I0
sS'render_obj'
p18
(tsS'before'
p19
I00
sba(ilibs.game.physics_interface.game_objects.level_build.platforms
FriendlyLine
p20
(dp21
g4
Nsg5
(dp22
sg7
Nsg8
g9
sg10
(F0.6734375
F0.5863636363636363
F0.7359375
F0.5943181818181819
tp23
sg12
(lp24
sg14
(F1199.0
F516.0
F1239.0
F523.0
tp25
sg16
Nsg17
I0
sg18
(tsg19
I00
sba(ilibs.game.physics_interface.game_objects.level_build.platforms
FriendlyLine
p26
(dp27
g4
Nsg5
(dp28
sg7
Nsg8
g9
sg10
(F0.49375
F0.8306818181818182
F0.49375
F0.8352272727272727
tp29
sg12
(lp30
sg14
(F1084.0
F731.0
F1084.0
F735.0
tp31
sg16
Nsg17
I0
sg18
(tsg19
I00
sba(ilibs.game.physics_interface.game_objects.level_build.platforms
FriendlyLine
p32
(dp33
g4
Nsg5
(dp34
sg7
Nsg8
g9
sg10
(F0.18125
F0.8363636363636363
F0.2
F0.8318181818181818
tp35
sg12
(lp36
sg14
(F884.0
F736.0
F896.0
F732.0
tp37
sg16
Nsg17
I0
sg18
(tsg19
I00
sba(ilibs.game.physics_interface.game_objects.level_build.platforms
FriendlyLine
p38
(dp39
g4
Nsg5
(dp40
sg7
Nsg8
g9
sg10
(F0.328125
F0.5727272727272728
F0.296875
F0.6
tp41
sg12
(lp42
sg14
(F978.0
F504.0
F958.0
F528.0
tp43
sg16
Nsg17
I0
sg18
(tsg19
I00
sba(ilibs.game.physics_interface.game_objects.level_build.platforms
FriendlyLine
p44
(dp45
g4
Nsg5
(dp46
sg7
Nsg8
g9
sg10
(F0.1609375
F0.85
F0.16875
F0.8465909090909091
tp47
sg12
(lp48
sg14
(F871.0
F748.0
F876.0
F745.0
tp49
sg16
Nsg17
I0
sg18
(tsg19
I00
sba(ilibs.game.physics_interface.game_objects.level_build.platforms
FriendlyLine
p50
(dp51
g4
Nsg5
(dp52
sg7
Nsg8
g9
sg10
(F0.825
F0.48977272727272725
F0.8171875
F0.49090909090909085
tp53
sg12
(lp54
sg14
(F1296.0
F431.0
F1291.0
F431.99999999999994
tp55
sg16
Nsg17
I0
sg18
(tsg19
I00
sba(ilibs.game.physics_interface.game_objects.level_build.platforms
FriendlyLine
p56
(dp57
g4
Nsg5
(dp58
sg7
Nsg8
g9
sg10
(F0.7484375
F0.575
F0.753125
F0.5670454545454545
tp59
sg12
(lp60
sg14
(F1247.0
F505.99999999999994
F1250.0
F499.0
tp61
sg16
Nsg17
I0
sg18
(tsg19
I00
sba(ilibs.game.physics_interface.game_objects.level_build.platforms
FriendlyLine
p62
(dp63
g4
Nsg5
(dp64
sg7
Nsg8
g9
sg10
(F0.89375
F0.7090909090909091
F0.8328125
F0.5249999999999999
tp65
sg12
(lp66
sg14
(F1340.0
F624.0
F1301.0
F461.99999999999994
tp67
sg16
Nsg17
I0
sg18
(tsg19
I00
sba(ilibs.game.physics_interface.game_objects.level_build.platforms
FriendlyLine
p68
(dp69
g4
Nsg5
(dp70
sg7
Nsg8
g9
sg10
(F0.746875
F0.5852272727272727
F0.746875
F0.578409090909091
tp71
sg12
(lp72
sg14
(F1246.0
F515.0
F1246.0
F509.00000000000006
tp73
sg16
Nsg17
I0
sg18
(tsg19
I00
sba(ilibs.game.physics_interface.game_objects.level_build.platforms
FriendlyLine
p74
(dp75
g4
Nsg5
(dp76
sg7
Nsg8
g9
sg10
(F0.5515625
F0.8545454545454545
F0.55625
F0.8340909090909091
tp77
sg12
(lp78
sg14
(F1121.0
F752.0
F1124.0
F734.0
tp79
sg16
Nsg17
I0
sg18
(tsg19
I00
sba(ilibs.game.physics_interface.game_objects.level_build.platforms
FriendlyLine
p80
(dp81
g4
Nsg5
(dp82
sg7
Nsg8
g9
sg10
(F0.8203125
F0.5022727272727273
F0.8296875
F0.4977272727272728
tp83
sg12
(lp84
sg14
(F1293.0
F442.00000000000006
F1299.0
F438.00000000000006
tp85
sg16
Nsg17
I0
sg18
(tsg19
I00
sba(ilibs.game.physics_interface.game_objects.level_build.platforms
FriendlyLine
p86
(dp87
g4
Nsg5
(dp88
sg7
Nsg8
g9
sg10
(F0.74375
F0.5193181818181818
F0.7359375
F0.5204545454545455
tp89
sg12
(lp90
sg14
(F1244.0
F457.0
F1239.0
F458.00000000000006
tp91
sg16
Nsg17
I0
sg18
(tsg19
I00
sba(ilibs.game.physics_interface.game_objects.level_build.platforms
FriendlyLine
p92
(dp93
g4
Nsg5
(dp94
sg7
Nsg8
g9
sg10
(F0.825
F0.5
F0.825
F0.48977272727272725
tp95
sg12
(lp96
sg14
(F1296.0
F440.0
F1296.0
F431.0
tp97
sg16
Nsg17
I0
sg18
(tsg19
I00
sba(ilibs.game.physics_interface.game_objects.level_build.platforms
FriendlyLine
p98
(dp99
g4
Nsg5
(dp100
sg7
Nsg8
g9
sg10
(F0.5296875
F0.6306818181818182
F0.5953125
F0.6170454545454546
tp101
sg12
(lp102
sg14
(F1107.0
F555.0
F1149.0
F543.0
tp103
sg16
Nsg17
I0
sg18
(tsg19
I00
sba(ilibs.game.physics_interface.game_objects.level_build.platforms
FriendlyLine
p104
(dp105
g4
Nsg5
(dp106
sg7
Nsg8
g9
sg10
(F0.1546875
F0.9125
F0.1484375
F0.8920454545454546
tp107
sg12
(lp108
sg14
(F867.0
F803.0
F863.0
F785.0
tp109
sg16
Nsg17
I0
sg18
(tsg19
I00
sba(ilibs.game.physics_interface.game_objects.level_build.platforms
FriendlyLine
p110
(dp111
g4
Nsg5
(dp112
sg7
Nsg8
g9
sg10
(F0.6765625
F0.5215909090909091
F0.671875
F0.5215909090909091
tp113
sg12
(lp114
sg14
(F1201.0
F459.0
F1198.0
F459.0
tp115
sg16
Nsg17
I0
sg18
(tsg19
I00
sba(ilibs.game.physics_interface.game_objects.level_build.platforms
FriendlyLine
p116
(dp117
g4
Nsg5
(dp118
sg7
Nsg8
g9
sg10
(F0.6203125
F0.8068181818181818
F0.6296875
F0.8068181818181817
tp119
sg12
(lp120
sg14
(F1165.0
F710.0
F1171.0
F709.9999999999999
tp121
sg16
Nsg17
I0
sg18
(tsg19
I00
sba(ilibs.game.physics_interface.game_objects.level_build.platforms
FriendlyLine
p122
(dp123
g4
Nsg5
(dp124
sg7
Nsg8
g9
sg10
(F0.440625
F0.8272727272727273
F0.4296875
F0.8181818181818182
tp125
sg12
(lp126
sg14
(F1050.0
F728.0
F1043.0
F720.0
tp127
sg16
Nsg17
I0
sg18
(tsg19
I00
sba(ilibs.game.physics_interface.game_objects.level_build.platforms
FriendlyLine
p128
(dp129
g4
Nsg5
(dp130
sg7
Nsg8
g9
sg10
(F0.825
F0.5011363636363636
F0.81875
F0.49090909090909085
tp131
sg12
(lp132
sg14
(F1296.0
F440.99999999999994
F1292.0
F431.99999999999994
tp133
sg16
Nsg17
I0
sg18
(tsg19
I00
sba(ilibs.game.physics_interface.game_objects.level_build.platforms
FriendlyLine
p134
(dp135
g4
Nsg5
(dp136
sg7
Nsg8
g9
sg10
(F0.2125
F0.8329545454545455
F0.2328125
F0.8363636363636363
tp137
sg12
(lp138
sg14
(F904.0
F733.0
F917.0
F736.0
tp139
sg16
Nsg17
I0
sg18
(tsg19
I00
sba(ilibs.game.physics_interface.game_objects.level_build.platforms
FriendlyLine
p140
(dp141
g4
Nsg5
(dp142
sg7
Nsg8
g9
sg10
(F0.6234375
F0.8534090909090909
F0.621875
F0.8522727272727273
tp143
sg12
(lp144
sg14
(F1167.0
F751.0
F1166.0
F750.0
tp145
sg16
Nsg17
I0
sg18
(tsg19
I00
sba(ilibs.game.physics_interface.game_objects.level_build.platforms
FriendlyLine
p146
(dp147
g4
Nsg5
(dp148
sg7
Nsg8
g9
sg10
(F0.675
F0.9272727272727272
F0.653125
F0.7909090909090909
tp149
sg12
(lp150
sg14
(F1200.0
F816.0
F1186.0
F696.0
tp151
sg16
Nsg17
I0
sg18
(tsg19
I00
sba(ilibs.game.physics_interface.game_objects.level_build.platforms
FriendlyLine
p152
(dp153
g4
Nsg5
(dp154
sg7
Nsg8
g9
sg10
(F0.71875
F0.7136363636363636
F0.64375
F0.5238636363636363
tp155
sg12
(lp156
sg14
(F1228.0
F628.0
F1180.0
F460.99999999999994
tp157
sg16
Nsg17
I0
sg18
(tsg19
I00
sba(ilibs.game.physics_interface.game_objects.level_build.platforms
FriendlyLine
p158
(dp159
g4
Nsg5
(dp160
sg7
Nsg8
g9
sg10
(F0.315625
F0.8738636363636364
F0.2921875
F0.8136363636363636
tp161
sg12
(lp162
sg14
(F970.0
F769.0
F955.0
F716.0
tp163
sg16
Nsg17
I0
sg18
(tsg19
I00
sba(ilibs.game.physics_interface.game_objects.level_build.platforms
FriendlyLine
p164
(dp165
g4
Nsg5
(dp166
sg7
Nsg8
g9
sg10
(F0.5953125
F0.6011363636363637
F0.5828125
F0.5670454545454545
tp167
sg12
(lp168
sg14
(F1149.0
F529.0
F1141.0
F499.0
tp169
sg16
Nsg17
I0
sg18
(tsg19
I00
sba(ilibs.game.physics_interface.game_objects.level_build.platforms
FriendlyLine
p170
(dp171
g4
Nsg5
(dp172
sg7
Nsg8
g9
sg10
(F0.4984375
F0.8147727272727273
F0.4953125
F0.8238636363636364
tp173
sg12
(lp174
sg14
(F1087.0
F717.0
F1085.0
F725.0
tp175
sg16
Nsg17
I0
sg18
(tsg19
I00
sba(ilibs.game.physics_interface.game_objects.level_build.platforms
FriendlyLine
p176
(dp177
g4
Nsg5
(dp178
sg7
Nsg8
g9
sg10
(F0.475
F0.6045454545454545
F0.48125
F0.6102272727272727
tp179
sg12
(lp180
sg14
(F1072.0
F532.0
F1076.0
F537.0
tp181
sg16
Nsg17
I0
sg18
(tsg19
I00
sba(ilibs.game.physics_interface.game_objects.level_build.platforms
FriendlyLine
p182
(dp183
g4
Nsg5
(dp184
sg7
Nsg8
g9
sg10
(F0.2953125
F0.6443181818181818
F0.303125
F0.6511363636363636
tp185
sg12
(lp186
sg14
(F957.0
F567.0
F962.0
F573.0
tp187
sg16
Nsg17
I0
sg18
(tsg19
I00
sba(ilibs.game.physics_interface.game_objects.level_build.platforms
FriendlyLine
p188
(dp189
g4
Nsg5
(dp190
sg7
Nsg8
g9
sg10
(F0.7609375
F0.55
F0.7546875
F0.5306818181818181
tp191
sg12
(lp192
sg14
(F1255.0
F484.00000000000006
F1251.0
F466.99999999999994
tp193
sg16
Nsg17
I0
sg18
(tsg19
I00
sba(ilibs.game.physics_interface.game_objects.level_build.platforms
FriendlyLine
p194
(dp195
g4
Nsg5
(dp196
sg7
Nsg8
g9
sg10
(F0.31875
F0.6613636363636364
F0.3296875
F0.6636363636363637
tp197
sg12
(lp198
sg14
(F972.0
F582.0
F979.0
F584.0
tp199
sg16
Nsg17
I0
sg18
(tsg19
I00
sba(ilibs.game.physics_interface.game_objects.level_build.platforms
FriendlyLine
p200
(dp201
g4
Nsg5
(dp202
sg7
Nsg8
g9
sg10
(F0.2390625
F0.8386363636363636
F0.2453125
F0.8443181818181819
tp203
sg12
(lp204
sg14
(F921.0
F738.0
F925.0
F743.0
tp205
sg16
Nsg17
I0
sg18
(tsg19
I00
sba(ilibs.game.physics_interface.game_objects.level_build.platforms
FriendlyLine
p206
(dp207
g4
Nsg5
(dp208
sg7
Nsg8
g9
sg10
(F0.471875
F0.5738636363636364
F0.471875
F0.578409090909091
tp209
sg12
(lp210
sg14
(F1070.0
F505.0
F1070.0
F509.00000000000006
tp211
sg16
Nsg17
I0
sg18
(tsg19
I00
sba(ilibs.game.physics_interface.game_objects.level_build.platforms
FriendlyLine
p212
(dp213
g4
Nsg5
(dp214
sg7
Nsg8
g9
sg10
(F0.4984375
F0.5647727272727273
F0.4765625
F0.571590909090909
tp215
sg12
(lp216
sg14
(F1087.0
F497.00000000000006
F1073.0
F502.99999999999994
tp217
sg16
Nsg17
I0
sg18
(tsg19
I00
sba(ilibs.game.physics_interface.game_objects.level_build.platforms
FriendlyLine
p218
(dp219
g4
Nsg5
(dp220
sg7
Nsg8
g9
sg10
(F0.646875
F0.8068181818181818
F0.6578125
F0.8079545454545455
tp221
sg12
(lp222
sg14
(F1182.0
F710.0
F1189.0
F711.0
tp223
sg16
Nsg17
I0
sg18
(tsg19
I00
sba(ilibs.game.physics_interface.game_objects.level_build.platforms
FriendlyLine
p224
(dp225
g4
Nsg5
(dp226
sg7
Nsg8
g9
sg10
(F0.3984375
F0.8136363636363636
F0.3765625
F0.8147727272727273
tp227
sg12
(lp228
sg14
(F1023.0
F716.0
F1009.0
F717.0
tp229
sg16
Nsg17
I0
sg18
(tsg19
I00
sba(ilibs.game.physics_interface.game_objects.level_build.platforms
FriendlyLine
p230
(dp231
g4
Nsg5
(dp232
sg7
Nsg8
g9
sg10
(F0.434375
F0.8613636363636363
F0.4390625
F0.8545454545454545
tp233
sg12
(lp234
sg14
(F1046.0
F758.0
F1049.0
F752.0
tp235
sg16
Nsg17
I0
sg18
(tsg19
I00
sba(ilibs.game.physics_interface.game_objects.level_build.platforms
FriendlyLine
p236
(dp237
g4
Nsg5
(dp238
sg7
Nsg8
g9
sg10
(F0.3796875
F0.5875
F0.3359375
F0.571590909090909
tp239
sg12
(lp240
sg14
(F1011.0
F517.0
F983.0
F502.99999999999994
tp241
sg16
Nsg17
I0
sg18
(tsg19
I00
sba(ilibs.game.physics_interface.game_objects.level_build.platforms
FriendlyLine
p242
(dp243
g4
Nsg5
(dp244
sg7
Nsg8
g9
sg10
(F0.503125
F0.8568181818181818
F0.5140625
F0.8613636363636363
tp245
sg12
(lp246
sg14
(F1090.0
F754.0
F1097.0
F758.0
tp247
sg16
Nsg17
I0
sg18
(tsg19
I00
sba(ilibs.game.physics_interface.game_objects.level_build.platforms
FriendlyLine
p248
(dp249
g4
Nsg5
(dp250
sg7
Nsg8
g9
sg10
(F0.375
F0.8159090909090909
F0.3734375
F0.8181818181818182
tp251
sg12
(lp252
sg14
(F1008.0
F718.0
F1007.0
F720.0
tp253
sg16
Nsg17
I0
sg18
(tsg19
I00
sba(ilibs.game.physics_interface.game_objects.level_build.platforms
FriendlyLine
p254
(dp255
g4
Nsg5
(dp256
sg7
Nsg8
g9
sg10
(F0.534375
F0.8102272727272727
F0.51875
F0.8102272727272727
tp257
sg12
(lp258
sg14
(F1110.0
F713.0
F1100.0
F713.0
tp259
sg16
Nsg17
I0
sg18
(tsg19
I00
sba(ilibs.game.physics_interface.game_objects.level_build.platforms
FriendlyLine
p260
(dp261
g4
Nsg5
(dp262
sg7
Nsg8
g9
sg10
(F0.509375
F0.6215909090909091
F0.5109375
F0.6215909090909091
tp263
sg12
(lp264
sg14
(F1094.0
F547.0
F1095.0
F547.0
tp265
sg16
Nsg17
I0
sg18
(tsg19
I00
sba(ilibs.game.physics_interface.game_objects.level_build.platforms
FriendlyLine
p266
(dp267
g4
Nsg5
(dp268
sg7
Nsg8
g9
sg10
(F0.440625
F0.7352272727272727
F0.3828125
F0.5920454545454545
tp269
sg12
(lp270
sg14
(F1050.0
F647.0
F1013.0
F521.0
tp271
sg16
Nsg17
I0
sg18
(tsg19
I00
sba(ilibs.game.physics_interface.game_objects.level_build.platforms
FriendlyLine
p272
(dp273
g4
Nsg5
(dp274
sg7
Nsg8
g9
sg10
(F0.7140625
F0.5193181818181818
F0.7
F0.5193181818181818
tp275
sg12
(lp276
sg14
(F1225.0
F457.0
F1216.0
F457.0
tp277
sg16
Nsg17
I0
sg18
(tsg19
I00
sba(ilibs.game.physics_interface.game_objects.level_build.platforms
FriendlyLine
p278
(dp279
g4
Nsg5
(dp280
sg7
Nsg8
g9
sg10
(F0.59375
F0.8227272727272728
F0.59375
F0.8204545454545454
tp281
sg12
(lp282
sg14
(F1148.0
F724.0
F1148.0
F722.0
tp283
sg16
Nsg17
I0
sg18
(tsg19
I00
sba(ilibs.game.physics_interface.game_objects.level_build.platforms
FriendlyLine
p284
(dp285
g4
Nsg5
(dp286
sg7
Nsg8
g9
sg10
(F0.6015625
F0.8454545454545455
F0.5921875
F0.8284090909090909
tp287
sg12
(lp288
sg14
(F1153.0
F744.0
F1147.0
F729.0
tp289
sg16
Nsg17
I0
sg18
(tsg19
I00
sba(ilibs.game.physics_interface.game_objects.level_build.platforms
FriendlyLine
p290
(dp291
g4
Nsg5
(dp292
sg7
Nsg8
g9
sg10
(F0.6578125
F0.8545454545454545
F0.640625
F0.8545454545454545
tp293
sg12
(lp294
sg14
(F1189.0
F752.0
F1178.0
F752.0
tp295
sg16
Nsg17
I0
sg18
(tsg19
I00
sba(ilibs.game.physics_interface.game_objects.level_build.platforms
FriendlyLine
p296
(dp297
g4
Nsg5
(dp298
sg7
Nsg8
g9
sg10
(F0.75625
F0.5613636363636364
F0.759375
F0.5568181818181819
tp299
sg12
(lp300
sg14
(F1252.0
F494.00000000000006
F1254.0
F490.00000000000006
tp301
sg16
Nsg17
I0
sg18
(tsg19
I00
sba(ilibs.game.physics_interface.game_objects.level_build.platforms
FriendlyLine
p302
(dp303
g4
Nsg5
(dp304
sg7
Nsg8
g9
sg10
(F0.184375
F0.9477272727272728
F0.159375
F0.9329545454545455
tp305
sg12
(lp306
sg14
(F886.0
F834.0
F870.0
F821.0
tp307
sg16
Nsg17
I0
sg18
(tsg19
I00
sba(ilibs.game.physics_interface.game_objects.level_build.platforms
FriendlyLine
p308
(dp309
g4
Nsg5
(dp310
sg7
Nsg8
g9
sg10
(F0.8296875
F0.49204545454545456
F0.8234375
F0.49545454545454554
tp311
sg12
(lp312
sg14
(F1299.0
F433.0
F1295.0
F436.00000000000006
tp313
sg16
Nsg17
I0
sg18
(tsg19
I00
sba(ilibs.game.physics_interface.game_objects.level_build.platforms
FriendlyLine
p314
(dp315
g4
Nsg5
(dp316
sg7
Nsg8
g9
sg10
(F0.471875
F0.5863636363636363
F0.471875
F0.5977272727272728
tp317
sg12
(lp318
sg14
(F1070.0
F516.0
F1070.0
F526.0
tp319
sg16
Nsg17
I0
sg18
(tsg19
I00
sba(ilibs.game.physics_interface.game_objects.level_build.platforms
FriendlyLine
p320
(dp321
g4
Nsg5
(dp322
sg7
Nsg8
g9
sg10
(F0.7296875
F0.5204545454545455
F0.71875
F0.5193181818181818
tp323
sg12
(lp324
sg14
(F1235.0
F458.00000000000006
F1228.0
F457.0
tp325
sg16
Nsg17
I0
sg18
(tsg19
I00
sba(ilibs.game.physics_interface.game_objects.level_build.platforms
FriendlyLine
p326
(dp327
g4
Nsg5
(dp328
sg7
Nsg8
g9
sg10
(F0.6953125
F0.5204545454545455
F0.6875
F0.5204545454545455
tp329
sg12
(lp330
sg14
(F1213.0
F458.00000000000006
F1208.0
F458.00000000000006
tp331
sg16
Nsg17
I0
sg18
(tsg19
I00
sba(ilibs.game.physics_interface.game_objects.level_build.platforms
FriendlyLine
p332
(dp333
g4
Nsg5
(dp334
sg7
Nsg8
g9
sg10
(F0.425
F0.8693181818181818
F0.43125
F0.865909090909091
tp335
sg12
(lp336
sg14
(F1040.0
F765.0
F1044.0
F762.0
tp337
sg16
Nsg17
I0
sg18
(tsg19
I00
sba(ilibs.game.physics_interface.game_objects.level_build.platforms
FriendlyLine
p338
(dp339
g4
Nsg5
(dp340
sg7
Nsg8
g9
sg10
(F0.36875
F0.8261363636363637
F0.3640625
F0.8568181818181818
tp341
sg12
(lp342
sg14
(F1004.0
F727.0
F1001.0
F754.0
tp343
sg16
Nsg17
I0
sg18
(tsg19
I00
sba(ilibs.game.physics_interface.game_objects.level_build.platforms
FriendlyLine
p344
(dp345
g4
Nsg5
(dp346
sg7
Nsg8
g9
sg10
(F0.30625
F0.9681818181818181
F0.2515625
F0.9681818181818181
tp347
sg12
(lp348
sg14
(F964.0
F852.0
F929.0
F852.0
tp349
sg16
Nsg17
I0
sg18
(tsg19
I00
sba(ilibs.game.physics_interface.game_objects.level_build.platforms
FriendlyLine
p350
(dp351
g4
Nsg5
(dp352
sg7
Nsg8
g9
sg10
(F0.5
F0.865909090909091
F0.5296875
F0.865909090909091
tp353
sg12
(lp354
sg14
(F1088.0
F762.0
F1107.0
F762.0
tp355
sg16
Nsg17
I0
sg18
(tsg19
I00
sba(ilibs.game.physics_interface.game_objects.level_build.platforms
FriendlyLine
p356
(dp357
g4
Nsg5
(dp358
sg7
Nsg8
g9
sg10
(F0.2421875
F0.9659090909090909
F0.196875
F0.9590909090909091
tp359
sg12
(lp360
sg14
(F923.0
F850.0
F894.0
F844.0
tp361
sg16
Nsg17
I0
sg18
(tsg19
I00
sba(ilibs.game.physics_interface.game_objects.level_build.platforms
FriendlyLine
p362
(dp363
g4
Nsg5
(dp364
sg7
Nsg8
g9
sg10
(F0.7390625
F0.5943181818181819
F0.74375
F0.5920454545454545
tp365
sg12
(lp366
sg14
(F1241.0
F523.0
F1244.0
F521.0
tp367
sg16
Nsg17
I0
sg18
(tsg19
I00
sba(ilibs.game.physics_interface.game_objects.level_build.platforms
FriendlyLine
p368
(dp369
g4
Nsg5
(dp370
sg7
Nsg8
g9
sg10
(F0.5171875
F0.8125
F0.4984375
F0.8147727272727273
tp371
sg12
(lp372
sg14
(F1099.0
F715.0
F1087.0
F717.0
tp373
sg16
Nsg17
I0
sg18
(tsg19
I00
sba(ilibs.game.physics_interface.game_objects.level_build.platforms
FriendlyLine
p374
(dp375
g4
Nsg5
(dp376
sg7
Nsg8
g9
sg10
(F0.5578125
F0.8306818181818182
F0.5421875
F0.8125000000000001
tp377
sg12
(lp378
sg14
(F1125.0
F731.0
F1115.0
F715.0000000000001
tp379
sg16
Nsg17
I0
sg18
(tsg19
I00
sba(ilibs.game.physics_interface.game_objects.level_build.platforms
FriendlyLine
p380
(dp381
g4
Nsg5
(dp382
sg7
Nsg8
g9
sg10
(F0.440625
F0.8488636363636364
F0.440625
F0.8340909090909091
tp383
sg12
(lp384
sg14
(F1050.0
F747.0
F1050.0
F734.0
tp385
sg16
Nsg17
I0
sg18
(tsg19
I00
sba(ilibs.game.physics_interface.game_objects.level_build.platforms
FriendlyLine
p386
(dp387
g4
Nsg5
(dp388
sg7
Nsg8
g9
sg10
(F0.296875
F0.6011363636363637
F0.2921875
F0.6420454545454547
tp389
sg12
(lp390
sg14
(F958.0
F529.0
F955.0
F565.0000000000001
tp391
sg16
Nsg17
I0
sg18
(tsg19
I00
sba(ilibs.game.physics_interface.game_objects.level_build.platforms
FriendlyLine
p392
(dp393
g4
Nsg5
(dp394
sg7
Nsg8
g9
sg10
(F0.6703125
F0.5215909090909091
F0.6625
F0.5215909090909091
tp395
sg12
(lp396
sg14
(F1197.0
F459.0
F1192.0
F459.0
tp397
sg16
Nsg17
I0
sg18
(tsg19
I00
sba(ilibs.game.physics_interface.game_objects.level_build.platforms
FriendlyLine
p398
(dp399
g4
Nsg5
(dp400
sg7
Nsg8
g9
sg10
(F0.8296875
F0.49772727272727274
F0.8296875
F0.49204545454545456
tp401
sg12
(lp402
sg14
(F1299.0
F438.0
F1299.0
F433.0
tp403
sg16
Nsg17
I0
sg18
(tsg19
I00
sba(ilibs.game.physics_interface.game_objects.level_build.platforms
FriendlyLine
p404
(dp405
g4
Nsg5
(dp406
sg7
Nsg8
g9
sg10
(F0.5390625
F0.5579545454545455
F0.5
F0.5636363636363636
tp407
sg12
(lp408
sg14
(F1113.0
F491.0
F1088.0
F495.99999999999994
tp409
sg16
Nsg17
I0
sg18
(tsg19
I00
sba(ilibs.game.physics_interface.game_objects.level_build.platforms
FriendlyLine
p410
(dp411
g4
Nsg5
(dp412
sg7
Nsg8
g9
sg10
(F0.6109375
F0.85
F0.60625
F0.8477272727272728
tp413
sg12
(lp414
sg14
(F1159.0
F748.0
F1156.0
F746.0
tp415
sg16
Nsg17
I0
sg18
(tsg19
I00
sba(ilibs.game.physics_interface.game_objects.level_build.platforms
FriendlyLine
p416
(dp417
g4
Nsg5
(dp418
sg7
Nsg8
g9
sg10
(F0.496875
F0.8454545454545455
F0.4984375
F0.8511363636363637
tp419
sg12
(lp420
sg14
(F1086.0
F744.0
F1087.0
F749.0
tp421
sg16
Nsg17
I0
sg18
(tsg19
I00
sba(ilibs.game.physics_interface.game_objects.level_build.platforms
FriendlyLine
p422
(dp423
g4
Nsg5
(dp424
sg7
Nsg8
g9
sg10
(F0.384375
F0.8681818181818182
F0.3875
F0.8681818181818182
tp425
sg12
(lp426
sg14
(F1014.0
F764.0
F1016.0
F764.0
tp427
sg16
Nsg17
I0
sg18
(tsg19
I00
sba(ilibs.game.physics_interface.game_objects.level_build.platforms
FriendlyLine
p428
(dp429
g4
Nsg5
(dp430
sg7
Nsg8
g9
sg10
(F0.375
F0.8704545454545455
F0.4046875
F0.8738636363636364
tp431
sg12
(lp432
sg14
(F1008.0
F766.0
F1027.0
F769.0
tp433
sg16
Nsg17
I0
sg18
(tsg19
I00
sba(ilibs.game.physics_interface.game_objects.level_build.platforms
FriendlyLine
p434
(dp435
g4
Nsg5
(dp436
sg7
Nsg8
g9
sg10
(F0.4265625
F0.8159090909090909
F0.403125
F0.8136363636363636
tp437
sg12
(lp438
sg14
(F1041.0
F718.0
F1026.0
F716.0
tp439
sg16
Nsg17
I0
sg18
(tsg19
I00
sba(ilibs.game.physics_interface.game_objects.level_build.platforms
FriendlyLine
p440
(dp441
g4
Nsg5
(dp442
sg7
Nsg8
g9
sg10
(F0.8203125
F0.5011363636363636
F0.8234375
F0.49545454545454554
tp443
sg12
(lp444
sg14
(F1293.0
F440.99999999999994
F1295.0
F436.00000000000006
tp445
sg16
Nsg17
I0
sg18
(tsg19
I00
sba(ilibs.game.physics_interface.game_objects.level_build.platforms
FriendlyLine
p446
(dp447
g4
Nsg5
(dp448
sg7
Nsg8
g9
sg10
(F0.8234375
F0.4954545454545455
F0.81875
F0.49545454545454554
tp449
sg12
(lp450
sg14
(F1295.0
F436.0
F1292.0
F436.00000000000006
tp451
sg16
Nsg17
I0
sg18
(tsg19
I00
sba(ilibs.game.physics_interface.game_objects.level_build.platforms
FriendlyLine
p452
(dp453
g4
Nsg5
(dp454
sg7
Nsg8
g9
sg10
(F0.146875
F0.8681818181818182
F0.146875
F0.8579545454545454
tp455
sg12
(lp456
sg14
(F862.0
F764.0
F862.0
F755.0
tp457
sg16
Nsg17
I0
sg18
(tsg19
I00
sba(ilibs.game.physics_interface.game_objects.level_build.platforms
FriendlyLine
p458
(dp459
g4
Nsg5
(dp460
sg7
Nsg8
g9
sg10
(F0.83125
F0.5034090909090909
F0.8203125
F0.4931818181818181
tp461
sg12
(lp462
sg14
(F1300.0
F443.0
F1293.0
F433.99999999999994
tp463
sg16
Nsg17
I0
sg18
(tsg19
I00
sba(ilibs.game.physics_interface.game_objects.level_build.platforms
FriendlyLine
p464
(dp465
g4
Nsg5
(dp466
sg7
Nsg8
g9
sg10
(F0.5953125
F0.8147727272727273
F0.6
F0.8136363636363636
tp467
sg12
(lp468
sg14
(F1149.0
F717.0
F1152.0
F716.0
tp469
sg16
Nsg17
I0
sg18
(tsg19
I00
sba(ilibs.game.physics_interface.game_objects.level_build.platforms
FriendlyLine
p470
(dp471
g4
Nsg5
(dp472
sg7
Nsg8
g9
sg10
(F0.3046875
F0.7477272727272727
F0.5328125
F0.7306818181818182
tp473
sg12
(lp474
sg14
(F963.0
F658.0
F1109.0
F643.0
tp475
sg16
Nsg17
I0
sg18
(tsg19
I00
sba(ilibs.game.physics_interface.game_objects.level_build.platforms
FriendlyLine
p476
(dp477
g4
Nsg5
(dp478
sg7
Nsg8
g9
sg10
(F0.6015625
F0.8125
F0.61875
F0.8079545454545455
tp479
sg12
(lp480
sg14
(F1153.0
F715.0
F1164.0
F711.0
tp481
sg16
Nsg17
I0
sg18
(tsg19
I00
sba(ilibs.game.physics_interface.game_objects.level_build.platforms
FriendlyLine
p482
(dp483
g4
Nsg5
(dp484
sg7
Nsg8
g9
sg10
(F0.2171875
F0.8795454545454545
F0.315625
F0.8738636363636364
tp485
sg12
(lp486
sg14
(F907.0
F774.0
F970.0
F769.0
tp487
sg16
Nsg17
I0
sg18
(tsg19
I00
sbatp488
Rp489
.