c__builtin__
set
p0
((lp1
(ilibs.game.physics_interface.game_objects.level_build.platforms
LavaLine
p2
(dp3
S'body'
p4
NsS'smap'
p5
(dp6
sS'space'
p7
NsS'color'
p8
(I1
I0
I0
I1
tp9
sS'relative_points'
p10
(F0.9640625
F0.7738636363636363
F0.996875
F0.744318181818182
tp11
sS'shapes'
p12
(lp13
sS'points'
p14
(F1385.0
F681.0
F1406.0
F655.0000000000001
tp15
sS'context'
p16
NsS'physics_interface'
p17
I0
sS'render_obj'
p18
(tsS'before'
p19
I00
sba(ilibs.game.physics_interface.game_objects.level_build.platforms
LavaLine
p20
(dp21
g4
Nsg5
(dp22
sg7
Nsg8
g9
sg10
(F0.0078125
F0.9397727272727273
F0.4109375
F0.9397727272727273
tp23
sg12
(lp24
sg14
(F773.0
F827.0
F1031.0
F827.0
tp25
sg16
Nsg17
I0
sg18
(tsg19
I00
sba(ilibs.game.physics_interface.game_objects.level_build.platforms
LavaLine
p26
(dp27
g4
Nsg5
(dp28
sg7
Nsg8
g9
sg10
(F0.14375
F0.3795454545454545
F0.1484375
F0.11931818181818182
tp29
sg12
(lp30
sg14
(F860.0
F334.0
F863.0
F105.0
tp31
sg16
Nsg17
I0
sg18
(tsg19
I00
sba(ilibs.game.physics_interface.game_objects.level_build.platforms
LavaLine
p32
(dp33
g4
Nsg5
(dp34
sg7
Nsg8
g9
sg10
(F0.0078125
F0.8079545454545455
F0.9078125
F0.8090909090909091
tp35
sg12
(lp36
sg14
(F773.0
F711.0
F1349.0
F712.0
tp37
sg16
Nsg17
I0
sg18
(tsg19
I00
sba(ilibs.game.physics_interface.game_objects.level_build.platforms
LavaLine
p38
(dp39
g4
Nsg5
(dp40
sg7
Nsg8
g9
sg10
(F0.4453125
F0.5488636363636363
F0.5484375
F0.5954545454545455
tp41
sg12
(lp42
sg14
(F1053.0
F483.0
F1119.0
F524.0
tp43
sg16
Nsg17
I0
sg18
(tsg19
I00
sba(ilibs.game.physics_interface.game_objects.level_build.bucket
Bucket
p44
(dp45
g4
Nsg5
(dp46
sS'angle'
p47
I0
sg7
Nsg8
(I0
I0
I1
I1
tp48
sS'line3'
p49
(lp50
F960.5
aF176.00000000000006
aF935.5
aF176.00000000000006
asS'pos'
p51
(F948.0
F136.00000000000006
tp52
sS'line1'
p53
(lp54
F948.0
aF136.00000000000006
aF973.0
aF216.00000000000006
asS'relative_pos'
p55
(F0.28125
F0.1545454545454546
tp56
sg12
(lp57
sg16
NsS'line2'
p58
(lp59
F948.0
aF136.00000000000006
aF923.0
aF216.00000000000006
asg17
I0
sg18
(tsg19
I00
sba(ilibs.game.physics_interface.game_objects.level_build.platforms
LavaLine
p60
(dp61
g4
Nsg5
(dp62
sg7
Nsg8
g9
sg10
(F0.6640625
F0.5579545454545455
F0.99375
F0.5602272727272727
tp63
sg12
(lp64
sg14
(F1193.0
F491.0
F1404.0
F492.99999999999994
tp65
sg16
Nsg17
I0
sg18
(tsg19
I00
sba(ilibs.game.physics_interface.game_objects.level_build.platforms
LavaLine
p66
(dp67
g4
Nsg5
(dp68
sg7
Nsg8
g9
sg10
(F0.225
F0.26931818181818185
F0.228125
F0.14886363636363636
tp69
sg12
(lp70
sg14
(F912.0
F237.00000000000003
F914.0
F131.0
tp71
sg16
Nsg17
I0
sg18
(tsg19
I00
sba(ilibs.game.physics_interface.game_objects.level_build.platforms
LavaLine
p72
(dp73
g4
Nsg5
(dp74
sg7
Nsg8
g9
sg10
(F0.4453125
F0.6863636363636364
F0.4453125
F0.55
tp75
sg12
(lp76
sg14
(F1053.0
F604.0
F1053.0
F484.00000000000006
tp77
sg16
Nsg17
I0
sg18
(tsg19
I00
sba(ilibs.game.physics_interface.game_objects.level_build.platforms
LavaLine
p78
(dp79
g4
Nsg5
(dp80
sg7
Nsg8
g9
sg10
(F0.4828125
F0.9397727272727273
F0.98125
F0.9397727272727273
tp81
sg12
(lp82
sg14
(F1077.0
F827.0
F1396.0
F827.0
tp83
sg16
Nsg17
I0
sg18
(tsg19
I00
sba(ilibs.game.physics_interface.game_objects.level_build.platforms
LavaLine
p84
(dp85
g4
Nsg5
(dp86
sg7
Nsg8
g9
sg10
(F0.15625
F0.6863636363636364
F0.15625
F0.5409090909090909
tp87
sg12
(lp88
sg14
(F868.0
F604.0
F868.0
F476.0
tp89
sg16
Nsg17
I0
sg18
(tsg19
I00
sba(ilibs.game.physics_interface.game_objects.level_build.platforms
LavaLine
p90
(dp91
g4
Nsg5
(dp92
sg7
Nsg8
g9
sg10
(F0.1421875
F0.37727272727272726
F0.8703125
F0.11931818181818182
tp93
sg12
(lp94
sg14
(F859.0
F332.0
F1325.0
F105.0
tp95
sg16
Nsg17
I0
sg18
(tsg19
I00
sba(ilibs.game.physics_interface.game_objects.level_build.platforms
LavaLine
p96
(dp97
g4
Nsg5
(dp98
sg7
Nsg8
g9
sg10
(F0.5875
F0.14204545454545456
F0.321875
F0.24431818181818185
tp99
sg12
(lp100
sg14
(F1144.0
F125.00000000000001
F974.0
F215.00000000000003
tp101
sg16
Nsg17
I0
sg18
(tsg19
I00
sba(ilibs.game.physics_interface.game_objects.level_build.platforms
LavaLine
p102
(dp103
g4
Nsg5
(dp104
sg7
Nsg8
g9
sg10
(F0.1265625
F0.44886363636363635
F0.9984375
F0.12727272727272732
tp105
sg12
(lp106
sg14
(F849.0
F395.0
F1407.0
F112.00000000000004
tp107
sg16
Nsg17
I0
sg18
(tsg19
I00
sba(ilibs.game.physics_interface.game_objects.level_build.platforms
LavaLine
p108
(dp109
g4
Nsg5
(dp110
sg7
Nsg8
g9
sg10
(F0.05625
F0.8636363636363636
F0.9765625
F0.8647727272727272
tp111
sg12
(lp112
sg14
(F804.0
F760.0
F1393.0
F761.0
tp113
sg16
Nsg17
I0
sg18
(tsg19
I00
sba(ilibs.game.physics_interface.game_objects.level_build.platforms
LavaLine
p114
(dp115
g4
Nsg5
(dp116
sg7
Nsg8
g9
sg10
(F0.665625
F0.5590909090909091
F0.9640625
F0.7738636363636363
tp117
sg12
(lp118
sg14
(F1194.0
F492.0
F1385.0
F681.0
tp119
sg16
Nsg17
I0
sg18
(tsg19
I00
sba(ilibs.game.physics_interface.game_objects.level_build.platforms
LavaLine
p120
(dp121
g4
Nsg5
(dp122
sg7
Nsg8
g9
sg10
(F0.2265625
F0.15
F0.5875
F0.14204545454545459
tp123
sg12
(lp124
sg14
(F913.0
F132.0
F1144.0
F125.00000000000003
tp125
sg16
Nsg17
I0
sg18
(tsg19
I00
sba(ilibs.game.physics_interface.game_objects.level_build.platforms
LavaLine
p126
(dp127
g4
Nsg5
(dp128
sg7
Nsg8
g9
sg10
(F0.15625
F0.5409090909090909
F0.2953125
F0.5943181818181819
tp129
sg12
(lp130
sg14
(F868.0
F476.0
F957.0
F523.0
tp131
sg16
Nsg17
I0
sg18
(tsg19
I00
sba(ilibs.game.physics_interface.game_objects.level_build.platforms
LavaLine
p132
(dp133
g4
Nsg5
(dp134
sg7
Nsg8
g9
sg10
(F0.1578125
F0.6852272727272727
F0.2953125
F0.5977272727272728
tp135
sg12
(lp136
sg14
(F869.0
F603.0
F957.0
F526.0
tp137
sg16
Nsg17
I0
sg18
(tsg19
I00
sba(ilibs.game.physics_interface.game_objects.level_build.platforms
LavaLine
p138
(dp139
g4
Nsg5
(dp140
sg7
Nsg8
g9
sg10
(F0.5484375
F0.5954545454545455
F0.446875
F0.6852272727272727
tp141
sg12
(lp142
sg14
(F1119.0
F524.0
F1054.0
F603.0
tp143
sg16
Nsg17
I0
sg18
(tsg19
I00
sbatp144
Rp145
.