c__builtin__
set
p0
((lp1
(ilibs.game.physics_interface.game_objects.level_build.platforms
FriendlyLine
p2
(dp3
S'body'
p4
NsS'smap'
p5
(dp6
sS'space'
p7
NsS'color'
p8
(I0
I1
I0
I1
tp9
sS'relative_points'
p10
(F0.0125
F0.8011363636363636
F0.8765625
F0.8011363636363636
tp11
sS'shapes'
p12
(lp13
sS'points'
p14
(F776.0
F705.0
F1329.0
F705.0
tp15
sS'context'
p16
NsS'physics_interface'
p17
I0
sS'render_obj'
p18
(tsS'before'
p19
I00
sba(ilibs.game.physics_interface.game_objects.level_build.bucket
Bucket
p20
(dp21
g4
Nsg5
(dp22
sS'angle'
p23
I0
sg7
Nsg8
(I0
I0
I1
I1
tp24
sS'line3'
p25
(lp26
F960.5
aF176.00000000000006
aF935.5
aF176.00000000000006
asS'pos'
p27
(F948.0
F136.00000000000006
tp28
sS'line1'
p29
(lp30
F948.0
aF136.00000000000006
aF973.0
aF216.00000000000006
asS'relative_pos'
p31
(F0.28125
F0.1545454545454546
tp32
sg12
(lp33
sg16
NsS'line2'
p34
(lp35
F948.0
aF136.00000000000006
aF923.0
aF216.00000000000006
asg17
I0
sg18
(tsg19
I00
sba(ilibs.game.physics_interface.game_objects.level_build.platforms
LavaLine
p36
(dp37
g4
Nsg5
(dp38
sg7
Nsg8
(I1
I0
I0
I1
tp39
sg10
(F0.6640625
F0.5579545454545455
F0.99375
F0.5602272727272727
tp40
sg12
(lp41
sg14
(F1193.0
F491.0
F1404.0
F492.99999999999994
tp42
sg16
Nsg17
I0
sg18
(tsg19
I00
sba(ilibs.game.physics_interface.game_objects.level_build.platforms
LavaLine
p43
(dp44
g4
Nsg5
(dp45
sg7
Nsg8
g39
sg10
(F0.15625
F0.5409090909090909
F0.2953125
F0.5943181818181819
tp46
sg12
(lp47
sg14
(F868.0
F476.0
F957.0
F523.0
tp48
sg16
Nsg17
I0
sg18
(tsg19
I00
sba(ilibs.game.physics_interface.game_objects.level_build.platforms
FriendlyLine
p49
(dp50
g4
Nsg5
(dp51
sg7
Nsg8
g9
sg10
(F0.0046875
F0.9795454545454545
F0.540625
F0.9795454545454545
tp52
sg12
(lp53
sg14
(F771.0
F862.0
F1114.0
F862.0
tp54
sg16
Nsg17
I0
sg18
(tsg19
I00
sba(ilibs.game.physics_interface.game_objects.level_build.platforms
LavaLine
p55
(dp56
g4
Nsg5
(dp57
sg7
Nsg8
g39
sg10
(F0.225
F0.26931818181818185
F0.228125
F0.14886363636363636
tp58
sg12
(lp59
sg14
(F912.0
F237.00000000000003
F914.0
F131.0
tp60
sg16
Nsg17
I0
sg18
(tsg19
I00
sba(ilibs.game.physics_interface.game_objects.level_build.platforms
LavaLine
p61
(dp62
g4
Nsg5
(dp63
sg7
Nsg8
g39
sg10
(F0.9640625
F0.7738636363636363
F0.996875
F0.744318181818182
tp64
sg12
(lp65
sg14
(F1385.0
F681.0
F1406.0
F655.0000000000001
tp66
sg16
Nsg17
I0
sg18
(tsg19
I00
sba(ilibs.game.physics_interface.game_objects.level_build.platforms
LavaLine
p67
(dp68
g4
Nsg5
(dp69
sg7
Nsg8
g39
sg10
(F0.5484375
F0.5954545454545455
F0.446875
F0.6852272727272727
tp70
sg12
(lp71
sg14
(F1119.0
F524.0
F1054.0
F603.0
tp72
sg16
Nsg17
I0
sg18
(tsg19
I00
sba(ilibs.game.physics_interface.game_objects.level_build.platforms
LavaLine
p73
(dp74
g4
Nsg5
(dp75
sg7
Nsg8
g39
sg10
(F0.665625
F0.5590909090909091
F0.9640625
F0.7738636363636363
tp76
sg12
(lp77
sg14
(F1194.0
F492.0
F1385.0
F681.0
tp78
sg16
Nsg17
I0
sg18
(tsg19
I00
sba(ilibs.game.physics_interface.game_objects.level_build.platforms
LavaLine
p79
(dp80
g4
Nsg5
(dp81
sg7
Nsg8
g39
sg10
(F0.14375
F0.3795454545454545
F0.1484375
F0.11931818181818182
tp82
sg12
(lp83
sg14
(F860.0
F334.0
F863.0
F105.0
tp84
sg16
Nsg17
I0
sg18
(tsg19
I00
sba(ilibs.game.physics_interface.game_objects.level_build.platforms
LavaLine
p85
(dp86
g4
Nsg5
(dp87
sg7
Nsg8
g39
sg10
(F0.4453125
F0.6863636363636364
F0.4453125
F0.55
tp88
sg12
(lp89
sg14
(F1053.0
F604.0
F1053.0
F484.00000000000006
tp90
sg16
Nsg17
I0
sg18
(tsg19
I00
sba(ilibs.game.physics_interface.game_objects.level_build.platforms
LavaLine
p91
(dp92
g4
Nsg5
(dp93
sg7
Nsg8
g39
sg10
(F0.2265625
F0.15
F0.5875
F0.14204545454545459
tp94
sg12
(lp95
sg14
(F913.0
F132.0
F1144.0
F125.00000000000003
tp96
sg16
Nsg17
I0
sg18
(tsg19
I00
sba(ilibs.game.physics_interface.game_objects.level_build.platforms
LavaLine
p97
(dp98
g4
Nsg5
(dp99
sg7
Nsg8
g39
sg10
(F0.6140625
F0.9806818181818182
F0.9953125
F0.9806818181818182
tp100
sg12
(lp101
sg14
(F1161.0
F863.0
F1405.0
F863.0
tp102
sg16
Nsg17
I0
sg18
(tsg19
I00
sba(ilibs.game.physics_interface.game_objects.level_build.platforms
LavaLine
p103
(dp104
g4
Nsg5
(dp105
sg7
Nsg8
g39
sg10
(F0.625
F0.9238636363636363
F0.990625
F0.9238636363636363
tp106
sg12
(lp107
sg14
(F1168.0
F813.0
F1402.0
F813.0
tp108
sg16
Nsg17
I0
sg18
(tsg19
I00
sba(ilibs.game.physics_interface.game_objects.level_build.platforms
LavaLine
p109
(dp110
g4
Nsg5
(dp111
sg7
Nsg8
g39
sg10
(F0.15625
F0.6863636363636364
F0.15625
F0.5409090909090909
tp112
sg12
(lp113
sg14
(F868.0
F604.0
F868.0
F476.0
tp114
sg16
Nsg17
I0
sg18
(tsg19
I00
sba(ilibs.game.physics_interface.game_objects.level_build.platforms
LavaLine
p115
(dp116
g4
Nsg5
(dp117
sg7
Nsg8
g39
sg10
(F0.4453125
F0.5488636363636363
F0.5484375
F0.5954545454545455
tp118
sg12
(lp119
sg14
(F1053.0
F483.0
F1119.0
F524.0
tp120
sg16
Nsg17
I0
sg18
(tsg19
I00
sba(ilibs.game.physics_interface.game_objects.level_build.platforms
LavaLine
p121
(dp122
g4
Nsg5
(dp123
sg7
Nsg8
g39
sg10
(F0.1265625
F0.44886363636363635
F0.9984375
F0.12727272727272732
tp124
sg12
(lp125
sg14
(F849.0
F395.0
F1407.0
F112.00000000000004
tp126
sg16
Nsg17
I0
sg18
(tsg19
I00
sba(ilibs.game.physics_interface.game_objects.level_build.platforms
LavaLine
p127
(dp128
g4
Nsg5
(dp129
sg7
Nsg8
g39
sg10
(F0.1578125
F0.6852272727272727
F0.2953125
F0.5977272727272728
tp130
sg12
(lp131
sg14
(F869.0
F603.0
F957.0
F526.0
tp132
sg16
Nsg17
I0
sg18
(tsg19
I00
sba(ilibs.game.physics_interface.game_objects.level_build.platforms
LavaLine
p133
(dp134
g4
Nsg5
(dp135
sg7
Nsg8
g39
sg10
(F0.1421875
F0.37727272727272726
F0.8703125
F0.11931818181818182
tp136
sg12
(lp137
sg14
(F859.0
F332.0
F1325.0
F105.0
tp138
sg16
Nsg17
I0
sg18
(tsg19
I00
sba(ilibs.game.physics_interface.game_objects.level_build.platforms
FriendlyLine
p139
(dp140
g4
Nsg5
(dp141
sg7
Nsg8
g9
sg10
(F0.071875
F0.9238636363636363
F0.628125
F0.9238636363636363
tp142
sg12
(lp143
sg14
(F814.0
F813.0
F1170.0
F813.0
tp144
sg16
Nsg17
I0
sg18
(tsg19
I00
sba(ilibs.game.physics_interface.game_objects.level_build.platforms
LavaLine
p145
(dp146
g4
Nsg5
(dp147
sg7
Nsg8
g39
sg10
(F0.5875
F0.14204545454545456
F0.321875
F0.24431818181818185
tp148
sg12
(lp149
sg14
(F1144.0
F125.00000000000001
F974.0
F215.00000000000003
tp150
sg16
Nsg17
I0
sg18
(tsg19
I00
sbatp151
Rp152
.