c__builtin__
set
p0
((lp1
(ilibs.game.physics_interface.game_objects.level_build.platforms
FriendlyLine
p2
(dp3
S'body'
p4
NsS'smap'
p5
(dp6
sS'space'
p7
NsS'color'
p8
(I0
I1
I0
I1
tp9
sS'relative_points'
p10
(F0.00625
F0.9829545454545454
F0.4390625
F0.8977272727272727
tp11
sS'shapes'
p12
(lp13
sS'points'
p14
(F772.0
F865.0
F1049.0
F790.0
tp15
sS'context'
p16
NsS'physics_interface'
p17
I0
sS'render_obj'
p18
(tsS'before'
p19
I00
sba(ilibs.game.physics_interface.game_objects.level_build.bucket
Bucket
p20
(dp21
g4
Nsg5
(dp22
sS'angle'
p23
I0
sg7
Nsg8
(I0
I0
I1
I1
tp24
sS'line3'
p25
(lp26
F1375.5
aF508.00000000000006
aF1350.5
aF508.00000000000006
asS'pos'
p27
(F1363.0
F468.00000000000006
tp28
sS'line1'
p29
(lp30
F1363.0
aF468.00000000000006
aF1388.0
aF548.0
asS'relative_pos'
p31
(F0.9296875
F0.5318181818181819
tp32
sg12
(lp33
sg16
NsS'line2'
p34
(lp35
F1363.0
aF468.00000000000006
aF1338.0
aF548.0
asg17
I0
sg18
(tsg19
I00
sba(ilibs.game.physics_interface.game_objects.level_build.platforms
LavaLine
p36
(dp37
g4
Nsg5
(dp38
sg7
Nsg8
(I1
I0
I0
I1
tp39
sg10
(F0.4703125
F0.6125
F0.7171875
F0.31136363636363634
tp40
sg12
(lp41
sg14
(F1069.0
F539.0
F1227.0
F274.0
tp42
sg16
Nsg17
I0
sg18
(tsg19
I00
sba(ilibs.game.physics_interface.game_objects.level_build.platforms
LavaLine
p43
(dp44
g4
Nsg5
(dp45
sg7
Nsg8
g39
sg10
(F0.603125
F0.5818181818181818
F0.9015625
F0.8909090909090909
tp46
sg12
(lp47
sg14
(F1154.0
F512.0
F1345.0
F784.0
tp48
sg16
Nsg17
I0
sg18
(tsg19
I00
sba(ilibs.game.physics_interface.game_objects.level_build.platforms
LavaLine
p49
(dp50
g4
Nsg5
(dp51
sg7
Nsg8
g39
sg10
(F0.425
F0.5579545454545455
F0.6734375
F0.25113636363636366
tp52
sg12
(lp53
sg14
(F1040.0
F491.0
F1199.0
F221.00000000000003
tp54
sg16
Nsg17
I0
sg18
(tsg19
I00
sba(ilibs.game.physics_interface.game_objects.level_build.platforms
LavaLine
p55
(dp56
g4
Nsg5
(dp57
sg7
Nsg8
g39
sg10
(F0.6734375
F0.25113636363636366
F0.278125
F0.3840909090909091
tp58
sg12
(lp59
sg14
(F1199.0
F221.00000000000003
F946.0
F338.0
tp60
sg16
Nsg17
I0
sg18
(tsg19
I00
sba(ilibs.game.physics_interface.game_objects.level_build.platforms
LavaLine
p61
(dp62
g4
Nsg5
(dp63
sg7
Nsg8
g39
sg10
(F0.89375
F0.30113636363636365
F0.9921875
F0.21022727272727276
tp64
sg12
(lp65
sg14
(F1340.0
F265.0
F1403.0
F185.00000000000003
tp66
sg16
Nsg17
I0
sg18
(tsg19
I00
sba(ilibs.game.physics_interface.game_objects.level_build.platforms
LavaLine
p67
(dp68
g4
Nsg5
(dp69
sg7
Nsg8
g39
sg10
(F0.06875
F0.6215909090909091
F0.228125
F0.6920454545454545
tp70
sg12
(lp71
sg14
(F812.0
F547.0
F914.0
F609.0
tp72
sg16
Nsg17
I0
sg18
(tsg19
I00
sba(ilibs.game.physics_interface.game_objects.level_build.platforms
LavaLine
p73
(dp74
g4
Nsg5
(dp75
sg7
Nsg8
g39
sg10
(F0.271875
F0.5556818181818182
F0.0703125
F0.6204545454545455
tp76
sg12
(lp77
sg14
(F942.0
F489.0
F813.0
F546.0
tp78
sg16
Nsg17
I0
sg18
(tsg19
I00
sba(ilibs.game.physics_interface.game_objects.level_build.platforms
LavaLine
p79
(dp80
g4
Nsg5
(dp81
sg7
Nsg8
g39
sg10
(F0.275
F0.3840909090909091
F0.425
F0.5579545454545455
tp82
sg12
(lp83
sg14
(F944.0
F338.0
F1040.0
F491.0
tp84
sg16
Nsg17
I0
sg18
(tsg19
I00
sba(ilibs.game.physics_interface.game_objects.level_build.platforms
LavaLine
p85
(dp86
g4
Nsg5
(dp87
sg7
Nsg8
g39
sg10
(F0.4265625
F0.8954545454545455
F0.0015625
F0.8193181818181818
tp88
sg12
(lp89
sg14
(F1041.0
F788.0
F769.0
F721.0
tp90
sg16
Nsg17
I0
sg18
(tsg19
I00
sba(ilibs.game.physics_interface.game_objects.level_build.platforms
LavaLine
p91
(dp92
g4
Nsg5
(dp93
sg7
Nsg8
g39
sg10
(F0.5796875
F0.7204545454545455
F0.46875
F0.6125
tp94
sg12
(lp95
sg14
(F1139.0
F634.0
F1068.0
F539.0
tp96
sg16
Nsg17
I0
sg18
(tsg19
I00
sba(ilibs.game.physics_interface.game_objects.level_build.platforms
LavaLine
p97
(dp98
g4
Nsg5
(dp99
sg7
Nsg8
g39
sg10
(F0.6015625
F0.5818181818181818
F0.8984375
F0.2988636363636364
tp100
sg12
(lp101
sg14
(F1153.0
F512.0
F1343.0
F263.0
tp102
sg16
Nsg17
I0
sg18
(tsg19
I00
sba(ilibs.game.physics_interface.game_objects.level_build.platforms
LavaLine
p103
(dp104
g4
Nsg5
(dp105
sg7
Nsg8
g39
sg10
(F0.384375
F0.6272727272727273
F0.271875
F0.5556818181818182
tp106
sg12
(lp107
sg14
(F1014.0
F552.0
F942.0
F489.0
tp108
sg16
Nsg17
I0
sg18
(tsg19
I00
sba(ilibs.game.physics_interface.game_objects.level_build.platforms
LavaLine
p109
(dp110
g4
Nsg5
(dp111
sg7
Nsg8
g39
sg10
(F0.228125
F0.6920454545454545
F0.384375
F0.6272727272727273
tp112
sg12
(lp113
sg14
(F914.0
F609.0
F1014.0
F552.0
tp114
sg16
Nsg17
I0
sg18
(tsg19
I00
sba(ilibs.game.physics_interface.game_objects.level_build.platforms
LavaLine
p115
(dp116
g4
Nsg5
(dp117
sg7
Nsg8
g39
sg10
(F0.953125
F1.0818181818181818
F0.5796875
F0.7204545454545455
tp118
sg12
(lp119
sg14
(F1378.0
F952.0
F1139.0
F634.0
tp120
sg16
Nsg17
I0
sg18
(tsg19
I00
sbatp121
Rp122
.