c__builtin__
set
p0
((lp1
(ilibs.game.physics_interface.game_objects.level_build.platforms
LavaLine
p2
(dp3
S'body'
p4
NsS'smap'
p5
(dp6
sS'space'
p7
NsS'color'
p8
(I1
I0
I0
I1
tp9
sS'relative_points'
p10
(F0.425
F0.5579545454545455
F0.6734375
F0.25113636363636366
tp11
sS'shapes'
p12
(lp13
sS'points'
p14
(F1040.0
F491.0
F1199.0
F221.00000000000003
tp15
sS'context'
p16
NsS'physics_interface'
p17
I0
sS'render_obj'
p18
(tsS'before'
p19
I00
sba(ilibs.game.physics_interface.game_objects.level_build.platforms
LavaLine
p20
(dp21
g4
Nsg5
(dp22
sg7
Nsg8
g9
sg10
(F0.5796875
F0.7204545454545455
F0.46875
F0.6125
tp23
sg12
(lp24
sg14
(F1139.0
F634.0
F1068.0
F539.0
tp25
sg16
Nsg17
I0
sg18
(tsg19
I00
sba(ilibs.game.physics_interface.game_objects.level_build.platforms
LavaLine
p26
(dp27
g4
Nsg5
(dp28
sg7
Nsg8
g9
sg10
(F0.603125
F0.5818181818181818
F0.9015625
F0.8909090909090909
tp29
sg12
(lp30
sg14
(F1154.0
F512.0
F1345.0
F784.0
tp31
sg16
Nsg17
I0
sg18
(tsg19
I00
sba(ilibs.game.physics_interface.game_objects.level_build.platforms
LavaLine
p32
(dp33
g4
Nsg5
(dp34
sg7
Nsg8
g9
sg10
(F0.6734375
F0.25113636363636366
F0.278125
F0.3840909090909091
tp35
sg12
(lp36
sg14
(F1199.0
F221.00000000000003
F946.0
F338.0
tp37
sg16
Nsg17
I0
sg18
(tsg19
I00
sba(ilibs.game.physics_interface.game_objects.level_build.bucket
Bucket
p38
(dp39
g4
Nsg5
(dp40
sS'angle'
p41
I270
sg7
Nsg8
(I0
I0
I1
I1
tp42
sS'line3'
p43
(lp44
F1261.0
aF495.5
aF1261.0
aF520.5
asS'pos'
p45
(F1221.0
F508.0
tp46
sS'line1'
p47
(lp48
F1221.0
aF508.0
aF1301.0
aF483.0
asS'relative_pos'
p49
(F0.7078125
F0.5772727272727273
tp50
sg12
(lp51
sg16
NsS'line2'
p52
(lp53
F1221.0
aF508.0
aF1301.0
aF533.0
asg17
I0
sg18
(tsg19
I00
sba(ilibs.game.physics_interface.game_objects.level_build.platforms
LavaLine
p54
(dp55
g4
Nsg5
(dp56
sg7
Nsg8
g9
sg10
(F0.384375
F0.6272727272727273
F0.271875
F0.5556818181818182
tp57
sg12
(lp58
sg14
(F1014.0
F552.0
F942.0
F489.0
tp59
sg16
Nsg17
I0
sg18
(tsg19
I00
sba(ilibs.game.physics_interface.game_objects.level_build.platforms
LavaLine
p60
(dp61
g4
Nsg5
(dp62
sg7
Nsg8
g9
sg10
(F0.228125
F0.6920454545454545
F0.384375
F0.6272727272727273
tp63
sg12
(lp64
sg14
(F914.0
F609.0
F1014.0
F552.0
tp65
sg16
Nsg17
I0
sg18
(tsg19
I00
sba(ilibs.game.physics_interface.game_objects.level_build.platforms
LavaLine
p66
(dp67
g4
Nsg5
(dp68
sg7
Nsg8
g9
sg10
(F0.06875
F0.6215909090909091
F0.228125
F0.6920454545454545
tp69
sg12
(lp70
sg14
(F812.0
F547.0
F914.0
F609.0
tp71
sg16
Nsg17
I0
sg18
(tsg19
I00
sba(ilibs.game.physics_interface.game_objects.level_build.platforms
LavaLine
p72
(dp73
g4
Nsg5
(dp74
sg7
Nsg8
g9
sg10
(F0.953125
F1.0818181818181818
F0.5796875
F0.7204545454545455
tp75
sg12
(lp76
sg14
(F1378.0
F952.0
F1139.0
F634.0
tp77
sg16
Nsg17
I0
sg18
(tsg19
I00
sba(ilibs.game.physics_interface.game_objects.level_build.platforms
LavaLine
p78
(dp79
g4
Nsg5
(dp80
sg7
Nsg8
g9
sg10
(F0.271875
F0.5556818181818182
F0.0703125
F0.6204545454545455
tp81
sg12
(lp82
sg14
(F942.0
F489.0
F813.0
F546.0
tp83
sg16
Nsg17
I0
sg18
(tsg19
I00
sba(ilibs.game.physics_interface.game_objects.level_build.platforms
LavaLine
p84
(dp85
g4
Nsg5
(dp86
sg7
Nsg8
g9
sg10
(F0.425
F0.8965909090909091
F0.0
F1.018181818181818
tp87
sg12
(lp88
sg14
(F1040.0
F789.0
F768.0
F895.9999999999999
tp89
sg16
Nsg17
I0
sg18
(tsg19
I00
sba(ilibs.game.physics_interface.game_objects.level_build.platforms
LavaLine
p90
(dp91
g4
Nsg5
(dp92
sg7
Nsg8
g9
sg10
(F0.275
F0.3840909090909091
F0.425
F0.5579545454545455
tp93
sg12
(lp94
sg14
(F944.0
F338.0
F1040.0
F491.0
tp95
sg16
Nsg17
I0
sg18
(tsg19
I00
sba(ilibs.game.physics_interface.game_objects.level_build.platforms
LavaLine
p96
(dp97
g4
Nsg5
(dp98
sg7
Nsg8
g9
sg10
(F0.4703125
F0.6125
F0.7171875
F0.31136363636363634
tp99
sg12
(lp100
sg14
(F1069.0
F539.0
F1227.0
F274.0
tp101
sg16
Nsg17
I0
sg18
(tsg19
I00
sba(ilibs.game.physics_interface.game_objects.level_build.platforms
LavaLine
p102
(dp103
g4
Nsg5
(dp104
sg7
Nsg8
g9
sg10
(F0.4265625
F0.8954545454545455
F0.0015625
F0.8193181818181818
tp105
sg12
(lp106
sg14
(F1041.0
F788.0
F769.0
F721.0
tp107
sg16
Nsg17
I0
sg18
(tsg19
I00
sba(ilibs.game.physics_interface.game_objects.level_build.platforms
LavaLine
p108
(dp109
g4
Nsg5
(dp110
sg7
Nsg8
g9
sg10
(F0.6015625
F0.5806818181818182
F0.99375
F0.17613636363636367
tp111
sg12
(lp112
sg14
(F1153.0
F511.0
F1404.0
F155.00000000000003
tp113
sg16
Nsg17
I0
sg18
(tsg19
I00
sbatp114
Rp115
.