c__builtin__
set
p0
((lp1
(ilibs.game.physics_interface.game_objects.level_build.bucket
Bucket
p2
(dp3
S'body'
p4
NsS'smap'
p5
(dp6
sS'angle'
p7
I0
sS'space'
p8
NsS'color'
p9
(I0
I0
I1
I1
tp10
sS'line3'
p11
(lp12
F860.5
aF774.0
aF835.5
aF774.0
asS'pos'
p13
(F848.0
F734.0
tp14
sS'line1'
p15
(lp16
F848.0
aF734.0
aF873.0
aF814.0
asS'relative_pos'
p17
(F0.125
F0.8340909090909091
tp18
sS'shapes'
p19
(lp20
sS'context'
p21
NsS'line2'
p22
(lp23
F848.0
aF734.0
aF823.0
aF814.0
asS'physics_interface'
p24
I0
sS'render_obj'
p25
(tsS'before'
p26
I00
sba(ilibs.game.physics_interface.game_objects.level_build.platforms
LavaLine
p27
(dp28
g4
Nsg5
(dp29
sg8
Nsg9
(I1
I0
I0
I1
tp30
sS'relative_points'
p31
(F0.39375
F0.7113636363636363
F0.4
F0.6068181818181818
tp32
sg19
(lp33
sS'points'
p34
(F1020.0
F626.0
F1024.0
F534.0
tp35
sg21
Nsg24
I0
sg25
(tsg26
I00
sba(ilibs.game.physics_interface.game_objects.level_build.platforms
LavaLine
p36
(dp37
g4
Nsg5
(dp38
sg8
Nsg9
g30
sg31
(F0.50625
F0.6261363636363636
F0.51875
F0.5988636363636364
tp39
sg19
(lp40
sg34
(F1092.0
F551.0
F1100.0
F527.0
tp41
sg21
Nsg24
I0
sg25
(tsg26
I00
sba(ilibs.game.physics_interface.game_objects.level_build.platforms
LavaLine
p42
(dp43
g4
Nsg5
(dp44
sg8
Nsg9
g30
sg31
(F0.4234375
F0.5625
F0.446875
F0.5568181818181819
tp45
sg19
(lp46
sg34
(F1039.0
F495.0
F1054.0
F490.00000000000006
tp47
sg21
Nsg24
I0
sg25
(tsg26
I00
sba(ilibs.game.physics_interface.game_objects.level_build.platforms
LavaLine
p48
(dp49
g4
Nsg5
(dp50
sg8
Nsg9
g30
sg31
(F0.4
F0.6079545454545454
F0.44375
F0.6272727272727273
tp51
sg19
(lp52
sg34
(F1024.0
F535.0
F1052.0
F552.0
tp53
sg21
Nsg24
I0
sg25
(tsg26
I00
sba(ilibs.game.physics_interface.game_objects.level_build.platforms
LavaLine
p54
(dp55
g4
Nsg5
(dp56
sg8
Nsg9
g30
sg31
(F0.41875
F0.5693181818181818
F0.41875
F0.5818181818181818
tp57
sg19
(lp58
sg34
(F1036.0
F501.0
F1036.0
F512.0
tp59
sg21
Nsg24
I0
sg25
(tsg26
I00
sba(ilibs.game.physics_interface.game_objects.level_build.platforms
LavaLine
p60
(dp61
g4
Nsg5
(dp62
sg8
Nsg9
g30
sg31
(F0.496875
F0.5579545454545455
F0.4625
F0.5602272727272727
tp63
sg19
(lp64
sg34
(F1086.0
F491.0
F1064.0
F492.99999999999994
tp65
sg21
Nsg24
I0
sg25
(tsg26
I00
sba(ilibs.game.physics_interface.game_objects.level_build.platforms
LavaLine
p66
(dp67
g4
Nsg5
(dp68
sg8
Nsg9
g30
sg31
(F0.696875
F0.7136363636363636
F0.39375
F0.7113636363636363
tp69
sg19
(lp70
sg34
(F1214.0
F628.0
F1020.0
F626.0
tp71
sg21
Nsg24
I0
sg25
(tsg26
I00
sba(ilibs.game.physics_interface.game_objects.level_build.platforms
LavaLine
p72
(dp73
g4
Nsg5
(dp74
sg8
Nsg9
g30
sg31
(F0.51875
F0.5840909090909091
F0.50625
F0.5636363636363636
tp75
sg19
(lp76
sg34
(F1100.0
F514.0
F1092.0
F495.99999999999994
tp77
sg21
Nsg24
I0
sg25
(tsg26
I00
sba(ilibs.game.physics_interface.game_objects.level_build.platforms
LavaLine
p78
(dp79
g4
Nsg5
(dp80
sg8
Nsg9
g30
sg31
(F0.4453125
F0.5602272727272727
F0.425
F0.5681818181818181
tp81
sg19
(lp82
sg34
(F1053.0
F492.99999999999994
F1040.0
F499.99999999999994
tp83
sg21
Nsg24
I0
sg25
(tsg26
I00
sba(ilibs.game.physics_interface.game_objects.level_build.platforms
LavaLine
p84
(dp85
g4
Nsg5
(dp86
sg8
Nsg9
g30
sg31
(F0.4453125
F0.6272727272727273
F0.5
F0.6295454545454545
tp87
sg19
(lp88
sg34
(F1053.0
F552.0
F1088.0
F554.0
tp89
sg21
Nsg24
I0
sg25
(tsg26
I00
sbatp90
Rp91
.